target datalayout = "e-m:e-p270:32:32-p271:32:32-p272:64:64-i64:64-i128:128-f80:128-n8:16:32:64-S128"
target triple = "x86_64-unknown-linux-gnu"

%class.btVector3 = type { [4 x float] }
%struct.btDbvtNode = type { %struct.btDbvtAabbMm, ptr, %union.anon.4 }
%struct.btDbvtAabbMm = type { %class.btVector3, %class.btVector3 }
%union.anon.4 = type { [2 x ptr] }

; Function Attrs: mustprogress nounwind uwtable
define linkonce_odr dso_local noundef zeroext i1 @_ZNK10btDbvtNode6isleafEv(ptr noundef nonnull align 8 dereferenceable(56) %this) #1 comdat align 2 {
entry:
  %this.addr = alloca ptr, align 8
  store ptr %this, ptr %this.addr, align 8
  %this1 = load ptr, ptr %this.addr, align 8
  %0 = getelementptr inbounds %struct.btDbvtNode, ptr %this1, i32 0, i32 2
  %arrayidx = getelementptr inbounds [2 x ptr], ptr %0, i64 0, i64 1
  %1 = load ptr, ptr %arrayidx, align 8
  %cmp = icmp eq ptr %1, null
  ret i1 %cmp
}

; Function Attrs: mustprogress nounwind uwtable
define linkonce_odr dso_local noundef zeroext i1 @_ZNK10btDbvtNode10isinternalEv(ptr noundef nonnull align 8 dereferenceable(56) %this) #1 comdat align 2 {
entry:
  %this.addr = alloca ptr, align 8
  store ptr %this, ptr %this.addr, align 8
  %this1 = load ptr, ptr %this.addr, align 8
  %call = call noundef zeroext i1 @_ZNK10btDbvtNode6isleafEv(ptr noundef nonnull align 8 dereferenceable(56) %this1)
  %lnot = xor i1 %call, true
  ret i1 %lnot
}

; Function Attrs: mustprogress uwtable
define dso_local noundef i32 @_ZN6btDbvt11countLeavesEPK10btDbvtNode(ptr noundef %node) #2 align 2 {
entry:
  %retval = alloca i32, align 4
  %node.addr = alloca ptr, align 8
  store ptr %node, ptr %node.addr, align 8
  %0 = load ptr, ptr %node.addr, align 8
  %call = call noundef zeroext i1 @_ZNK10btDbvtNode10isinternalEv(ptr noundef nonnull align 8 dereferenceable(56) %0)
  br i1 %call, label %if.then, label %if.else

if.then:                                          ; preds = %entry
  %1 = load ptr, ptr %node.addr, align 8
  %2 = getelementptr inbounds %struct.btDbvtNode, ptr %1, i32 0, i32 2
  %arrayidx = getelementptr inbounds [2 x ptr], ptr %2, i64 0, i64 0
  %3 = load ptr, ptr %arrayidx, align 8
  %call1 = call noundef i32 @_ZN6btDbvt11countLeavesEPK10btDbvtNode(ptr noundef %3)
  %4 = load ptr, ptr %node.addr, align 8
  %5 = getelementptr inbounds %struct.btDbvtNode, ptr %4, i32 0, i32 2
  %arrayidx2 = getelementptr inbounds [2 x ptr], ptr %5, i64 0, i64 1
  %6 = load ptr, ptr %arrayidx2, align 8
  %call3 = call noundef i32 @_ZN6btDbvt11countLeavesEPK10btDbvtNode(ptr noundef %6)
  %add = add nsw i32 %call1, %call3
  store i32 %add, ptr %retval, align 4
  br label %return

if.else:                                          ; preds = %entry
  store i32 1, ptr %retval, align 4
  br label %return

return:                                           ; preds = %if.else, %if.then
  %7 = load i32, ptr %retval, align 4
  ret i32 %7
}