; Function Attrs: mustprogress nofree nosync nounwind willreturn memory(read, inaccessiblemem: none) uwtable
define dso_local noundef i32 @_ZN6btDbvt11countLeavesEPK10btDbvtNode(ptr nocapture noundef readonly %node) local_unnamed_addr #8 align 2 {
entry:
  %arrayidx.i.i3 = getelementptr inbounds i8, ptr %node, i64 48
  %0 = load ptr, ptr %arrayidx.i.i3, align 8
  %cmp.i.i.not4 = icmp eq ptr %0, null
  br i1 %cmp.i.i.not4, label %return, label %if.then

if.then:                                          ; preds = %entry, %if.then
  %1 = phi ptr [ %4, %if.then ], [ %0, %entry ]
  %node.tr6 = phi ptr [ %1, %if.then ], [ %node, %entry ]
  %accumulator.tr5 = phi i32 [ %add, %if.then ], [ 0, %entry ]
  %2 = getelementptr inbounds i8, ptr %node.tr6, i64 40
  %3 = load ptr, ptr %2, align 8
  %call1 = tail call noundef i32 @_ZN6btDbvt11countLeavesEPK10btDbvtNode(ptr noundef %3)
  %add = add nsw i32 %call1, %accumulator.tr5
  %arrayidx.i.i = getelementptr inbounds i8, ptr %1, i64 48
  %4 = load ptr, ptr %arrayidx.i.i, align 8
  %cmp.i.i.not = icmp eq ptr %4, null
  br i1 %cmp.i.i.not, label %return.loopexit, label %if.then

return.loopexit:                                  ; preds = %if.then
  %5 = add nsw i32 %add, 1
  br label %return

return:                                           ; preds = %return.loopexit, %entry
  %accumulator.tr.lcssa = phi i32 [ 1, %entry ], [ %5, %return.loopexit ]
  ret i32 %accumulator.tr.lcssa
}